(lp0
(dp1
S'MIL'
p2
F108.7
sS'GSW'
p3
F113.27
sS'MIN'
p4
F108.06
sS'TOR'
p5
F108.57
sS'ATL'
p6
F103.2
sS'BOS'
p7
F111.82
sS'DET'
p8
F105.3
sS'NYK'
p9
F101.68
sS'DEN'
p10
F112.15
sS'SAC'
p11
F109.47
sS'POR'
p12
F104.24
sS'NJN'
p13
F110.22
sS'MIA'
p14
F101.31
sS'SEA'
p15
F104.03
sS'CLE'
p16
F103.08
sS'SAS'
p17
F113.15
sS'CHA'
p18
F109.65
sS'UTA'
p19
F105.23
sS'VAN'
p20
F112.72
sS'CHI'
p21
F103.19
sS'HOU'
p22
F104.8
sS'WAS'
p23
F105.59
sS'LAL'
p24
F104.65
sS'PHI'
p25
F111.9
sS'LAC'
p26
F108.58
sS'DAL'
p27
F109.18
sS'ORL'
p28
F106.8
sS'PHX'
p29
F109.44
sS'IND'
p30
F105.67
sa(dp31
g2
F106.14
sg3
F105.98
sg4
F108.02
sg14
F102.85
sg6
F105.31
sg7
F106.08
sg8
F104.47
sg9
F100.87
sg10
F112.95
sg11
F107.62
sg12
F103.09
sg13
F107.48
sg5
F111.4
sg15
F105.12
sg16
F99.65
sg17
F100.28
sg18
F106.11
sg19
F106.35
sg20
F112.93
sg21
F100.87
sg22
F109.46
sg23
F105.07
sg24
F104.92
sg25
F106.14
sg26
F112.11
sg27
F108.13
sg28
F104.35
sg29
F102.73
sg30
F102.58
sa(dp32
g2
F104.56
sg3
F101.37
sg4
F101.88
sg14
F100.23
sg6
F98.33
sg7
F103.88
sg8
F101.48
sg9
F98.22
sg10
F110.85
sg11
F103.72
sg12
F98.24
sg13
F104.33
sg5
F105.26
sg15
F107.08
sg21
F103.65
sg17
F95.84
sg18
F103.28
sg19
F98.96
sg20
F108.53
sg16
F102.73
sg22
F103.62
sg23
F104.8
sg24
F104.91
sg25
F98.73
sg26
F110.68
sg27
F105.84
sg28
F98.06
sg29
F103.85
sg30
F106.1
sa(dp33
g2
F109.19
sg3
F108.65
sg4
F104.03
sg14
F102.24
sg6
F108.5
sg7
F106.57
sg8
F106.91
sg9
F101.48
sg10
F106.23
sg11
F102.43
sg12
F101.68
sg13
F107.31
sg5
F105.71
sg15
F105.21
sg21
F105.65
sg17
F99.3
sg18
F102.41
sg19
F103.06
sg20
F109.26
sg16
F104.83
sg22
F106.41
sg23
F107.92
sg24
F98.75
sg25
F100.91
sg26
F110.44
sg27
F107.8
sg28
F102.44
sg29
F99.48
sg30
F104.58
sa(dp34
g2
F106.06
sg3
F107.34
sg4
F104.01
sg14
F99.81
sg6
F105.43
sg7
F105.14
sg8
F102.69
sg9
F99.44
sg10
F106.57
sg11
F99.85
sg12
F102.21
sg13
F106.77
sg5
F104.83
sg15
F106.03
sg21
F108.52
sg17
F98.31
sg18
F100.73
sg19
F102.89
sg20
F105.72
sg16
F106.02
sg22
F104.71
sg23
F108.93
sg24
F105.33
sg25
F100.17
sg26
F104.86
sg27
F103.07
sg28
F103.51
sg29
F98.03
sg30
F103.51
sa(dp35
g2
F108.6
sg3
F108.74
sg4
F105.73
sg14
F101.31
sg6
F107.73
sg7
F102.08
sg8
F103.8
sg9
F106.66
sg10
F108.08
sg11
F101.37
sg12
F104.52
sg13
F100.71
sg5
F104.37
sg15
F106.06
sg21
F108.72
sg17
F100.01
sg18
F104.4
sg19
F104.93
sg16
F109.62
sg22
F109.03
sg23
F107.62
sg24
F102.3
sg25
F101.69
sS'MEM'
p36
F106.32
sg26
F106.47
sg27
F108.13
sg28
F106.58
sg29
F104.19
sg30
F104.98
sa(dp37
g2
F109.97
sg3
F109.96
sg4
F104.23
sg14
F103.23
sg6
F107.27
sg7
F102.59
sg8
F101.11
sg9
F107.12
sg10
F101.33
sg27
F102.85
sg12
F103.29
sg13
F99.18
sg5
F108.21
sg15
F104.25
sg16
F107.45
sg17
F99.99
sg19
F103.3
sg21
F106.45
sg22
F103.14
sg23
F105.49
sg24
F105.35
sg25
F103.68
sS'NOH'
p38
F102.68
sg36
F107.71
sg26
F107.07
sg11
F99.2
sg28
F106.2
sg29
F102.83
sg30
F101.98
sa(dp39
g2
F106.85
sg3
F103.91
sg4
F99.79
sg14
F103.08
sg6
F107.51
sg7
F104.89
sg8
F97.01
sg9
F104.56
sg10
F103.13
sg11
F105.14
sg12
F105.45
sg13
F99.49
sg5
F101.61
sg15
F108.38
sg21
F104.67
sg17
F94.09
sg19
F103.86
sg16
F105.59
sg22
F99.13
sg23
F106.04
sg24
F101.54
sg25
F103.54
sg38
F104.05
sg36
F102.41
sg26
F108.81
sg27
F107.92
sg28
F111.86
sg29
F105.65
sg30
F98.77
sa(dp40
g2
F110.72
sg3
F107.24
sg4
F107.05
sg14
F104.31
sg6
F112.09
sg7
F107.92
sg8
F102.38
sg9
F110.01
sg10
F104.34
sg11
F108.46
sg12
F108.17
sg13
F104.18
sg5
F109.68
sg15
F110.34
sg16
F107.17
sg17
F99.31
sg18
F108.54
sg19
F109.9
sg21
F101.15
sg22
F102.15
sg23
F108.7
sg24
F111.74
sg25
F105.03
sg38
F108.32
sg36
F103.6
sg26
F107.2
sg27
F104.76
sg28
F108.33
sg29
F107.63
sg30
F105.85
sa(dp41
g2
F108.0
sg3
F106.74
sg4
F105.58
sg14
F105.38
sg6
F112.47
sg7
F107.83
sg8
F104.15
sg9
F111.74
sg10
F105.94
sg11
F105.8
sg12
F112.56
sg13
F103.1
sg5
F113.57
sg15
F115.79
sg21
F103.85
sg17
F100.38
sg18
F107.27
sg19
F107.79
sg16
F106.07
sg22
F104.2
sg23
F108.14
sg24
F106.77
sg25
F109.06
sg36
F102.66
sg26
F104.08
sg27
F106.07
sg28
F108.29
sg29
F106.58
sg30
F102.9
sS'NOP'
p42
F107.56
sa(dp43
g2
F112.66
sg3
F107.48
sg4
F108.15
sg14
F106.67
sg6
F109.5
sg7
F108.18
sg8
F105.33
sg9
F109.82
sg10
F106.24
sg11
F108.23
sg12
F110.42
sg13
F107.7
sg5
F106.91
sg15
F111.27
sg16
F102.41
sg17
F100.47
sg18
F108.52
sg19
F107.24
sg21
F100.5
sg22
F100.9
sg23
F111.71
sg24
F109.02
sg25
F108.04
sg36
F112.54
sg26
F106.14
sg27
F103.98
sg28
F105.28
sg29
F106.9
sg30
F106.44
sg42
F107.19
sa(dp44
g2
F113.64
sg3
F110.19
sg4
F111.59
sg5
F107.86
sg6
F109.81
sg7
F100.23
sg8
F104.09
sg9
F112.57
sg10
F106.93
sg11
F110.51
sg12
F108.73
sg13
F110.32
sg14
F110.64
sg15
F109.54
sg16
F107.23
sg17
F102.11
sg18
F110.36
sg19
F107.15
sg21
F107.96
sg22
F101.85
sg23
F110.71
sg24
F105.99
sg25
F107.01
sg38
F106.34
sg36
F111.86
sg26
F109.05
sg27
F106.77
sg28
F106.75
sg29
F108.86
sg30
F108.47
sa(dp45
g2
F108.54
sg3
F113.86
sg4
F112.0
sg14
F108.24
sg6
F108.51
sg7
F103.05
sg8
F108.78
sg9
F111.44
sg10
F107.78
sg27
F109.29
sS'OKC'
p46
F109.82
sg12
F108.94
sg13
F111.89
sg5
F110.66
sg21
F109.57
sg17
F105.05
sg18
F106.93
sg19
F107.93
sg16
F103.37
sg22
F104.69
sg23
F114.11
sg24
F105.45
sg25
F108.79
sg38
F108.07
sg36
F110.33
sg26
F112.16
sg11
F115.5
sg28
F102.66
sg29
F112.55
sg30
F109.86
sa(dp47
g2
F104.09
sg3
F112.05
sg4
F111.78
sg5
F114.2
sg6
F107.91
sg7
F104.79
sg8
F112.48
sg13
F111.54
sg9
F112.52
sg10
F108.06
sg27
F107.09
sg12
F108.04
sg28
F104.28
sg14
F105.32
sg21
F106.08
sg17
F105.07
sg18
F103.97
sg19
F105.69
sg16
F105.47
sg22
F108.45
sg23
F110.57
sg24
F104.32
sg25
F111.58
sg38
F110.67
sg36
F110.49
sg26
F110.61
sg11
F110.52
sg46
F105.23
sg29
F111.13
sg30
F107.73
sa(dp48
g2
F103.48
sg3
F111.08
sg4
F111.07
sg14
F104.94
sg6
F108.29
sg7
F101.73
sg8
F112.98
sg13
F111.1
sg9
F111.48
sg10
F107.84
sg27
F105.4
sg12
F107.54
sg28
F103.31
sg5
F113.88
sg16
F112.69
sg17
F105.97
sg18
F109.11
sg19
F110.75
sg21
F101.65
sg22
F109.51
sg23
F111.09
sg24
F104.89
sg25
F106.48
sg38
F105.7
sg36
F105.65
sg26
F109.31
sg11
F109.24
sg46
F107.93
sg29
F110.83
sg30
F107.07
sa(dp49
g2
F106.34
sg3
F109.01
sg4
F106.4
sg14
F101.71
sg6
F102.72
sg7
F99.69
sg8
F108.11
sg13
F111.17
sg9
F102.7
sg10
F106.63
sg27
F102.07
sg12
F106.64
sg46
F103.37
sg5
F105.83
sg16
F110.14
sg17
F103.6
sg18
F111.59
sg19
F106.4
sg21
F99.72
sg22
F105.58
sg23
F107.61
sg24
F104.45
sg25
F100.45
sg38
F105.11
sg36
F101.89
sg26
F106.18
sg11
F109.76
sg28
F105.36
sg29
F106.52
sg30
F104.77
sa(dp50
g2
F106.29
sg3
F105.61
sg4
F105.7
sg5
F108.45
sg6
F105.54
sg7
F104.51
sg8
F109.37
sg9
F107.53
sg10
F105.76
sg27
F106.82
sS'BKN'
p51
F107.71
sg12
F109.3
sg28
F109.89
sg14
F105.53
sg16
F110.52
sg17
F101.9
sg18
F112.82
sg19
F107.15
sg21
F104.1
sg22
F106.52
sg23
F103.64
sg24
F106.86
sg25
F106.45
sg38
F110.54
sg36
F100.79
sg26
F104.44
sg11
F111.83
sg46
F103.33
sg29
F108.24
sg30
F100.89
sa(dp52
g2
F113.1
sg3
F102.59
sg4
F106.25
sg5
F106.76
sg6
F107.71
sg7
F109.03
sg8
F111.07
sg9
F110.58
sg10
F108.17
sg11
F108.77
sg51
F109.16
sg12
F107.49
sg28
F108.48
sg14
F107.42
sg16
F109.07
sg17
F102.53
sg18
F105.03
sg19
F111.32
sg21
F101.72
sg22
F106.65
sg23
F105.99
sg24
F110.38
sg25
F110.79
sg36
F104.89
sg26
F105.33
sg27
F108.95
sg46
F104.26
sg29
F107.23
sg30
F100.42
sg42
F110.35
sa(dp53
g2
F103.49
sg3
F101.67
sg4
F112.5
sg5
F109.35
sg6
F104.56
sg7
F105.58
sg8
F107.77
sg9
F111.36
sg10
F108.22
sg11
F109.51
sg51
F108.48
sg12
F104.03
sg28
F108.54
sg14
F108.36
sg21
F105.53
sg17
F102.3
sg18
F104.55
sg19
F105.43
sg16
F107.58
sg22
F103.85
sg23
F104.13
sg24
F110.9
sg25
F105.67
sg36
F102.41
sg26
F106.14
sg27
F106.87
sg46
F105.89
sg29
F106.34
sg30
F104.48
sg42
F107.88
sa(dp54
g2
F109.69
sg3
F104.53
sg4
F110.86
sg5
F106.68
sg6
F102.12
sg7
F104.43
sg8
F106.48
sg9
F108.58
sg10
F109.17
sg11
F108.77
sg51
F111.66
sg12
F108.45
sg46
F106.29
sg14
F105.56
sg21
F107.44
sg17
F99.49
sg18
F105.33
sg19
F104.48
sg16
F105.85
sg22
F108.96
sg23
F106.62
sg24
F111.92
sg25
F110.01
sg36
F108.45
sg26
F104.39
sg27
F107.13
sg28
F107.7
sg29
F109.45
sg30
F103.58
sg42
F109.96
sa.